; Function Attrs: mustprogress nofree norecurse nosync nounwind willreturn memory(readwrite, argmem: read, inaccessiblemem: none) uwtable
define hidden void @_ZN10VM_Version31resolve_cpu_information_detailsEv() local_unnamed_addr #9 align 2 {
  %1 = load i32, ptr @_ZN2os16_processor_countE, align 4
  store i32 %1, ptr @_ZN19Abstract_VM_Version14_no_of_threadsE, align 4
  %2 = tail call noundef i32 @_ZN10VM_Version16threads_per_coreEv()
  %3 = load i32, ptr getelementptr inbounds (i8, ptr @_ZN10VM_Version11_cpuid_infoE, i64 4), align 4
  switch i32 %3, label %_ZN10VM_Version13cores_per_cpuEv.exit [
    i32 1970169159, label %4
    i32 1869052232, label %18
    i32 1752462657, label %18
    i32 1953391939, label %22
    i32 1750278176, label %22
  ]

4:                                                ; preds = %0
  %5 = load i32, ptr @_ZN10VM_Version11_cpuid_infoE, align 8
  %6 = icmp ugt i32 %5, 10
  br i1 %6, label %_ZN10VM_Version27supports_processor_topologyEv.exit.i, label %.thread.i

_ZN10VM_Version27supports_processor_topologyEv.exit.i: ; preds = %4
  %7 = load i32, ptr getelementptr inbounds (i8, ptr @_ZN10VM_Version11_cpuid_infoE, i64 72), align 8
  %8 = and i32 %7, 31
  %9 = load i32, ptr getelementptr inbounds (i8, ptr @_ZN10VM_Version11_cpuid_infoE, i64 76), align 4
  %10 = and i32 %9, 65535
  %11 = or i32 %10, %8
  %.not24.i = icmp eq i32 %11, 0
  br i1 %.not24.i, label %.thread.i, label %12

12:                                               ; preds = %_ZN10VM_Version27supports_processor_topologyEv.exit.i
  %13 = load i32, ptr getelementptr inbounds (i8, ptr @_ZN10VM_Version11_cpuid_infoE, i64 92), align 4
  %.lhs.trunc.i = trunc i32 %13 to i16
  %.rhs.trunc.i = trunc i32 %9 to i16
  %14 = udiv i16 %.lhs.trunc.i, %.rhs.trunc.i
  %.zext.i = zext i16 %14 to i32
  %.not25.i = icmp ugt i16 %.rhs.trunc.i, %.lhs.trunc.i
  br i1 %.not25.i, label %.thread.i, label %_ZN10VM_Version13cores_per_cpuEv.exit.thread

.thread.i:                                        ; preds = %12, %_ZN10VM_Version27supports_processor_topologyEv.exit.i, %4
  %15 = load i32, ptr getelementptr inbounds (i8, ptr @_ZN10VM_Version11_cpuid_infoE, i64 32), align 8
  %16 = lshr i32 %15, 26
  %17 = add nuw nsw i32 %16, 1
  br label %_ZN10VM_Version13cores_per_cpuEv.exit.thread

18:                                               ; preds = %0, %0
  %19 = load i32, ptr getelementptr inbounds (i8, ptr @_ZN10VM_Version11_cpuid_infoE, i64 240), align 8
  %20 = and i32 %19, 255
  %21 = add nuw nsw i32 %20, 1
  br label %_ZN10VM_Version13cores_per_cpuEv.exit

22:                                               ; preds = %0, %0
  %23 = load i32, ptr @_ZN10VM_Version11_cpuid_infoE, align 8
  %24 = icmp ugt i32 %23, 10
  br i1 %24, label %_ZN10VM_Version27supports_processor_topologyEv.exit13.i, label %.thread17.i

_ZN10VM_Version27supports_processor_topologyEv.exit13.i: ; preds = %22
  %25 = load i32, ptr getelementptr inbounds (i8, ptr @_ZN10VM_Version11_cpuid_infoE, i64 72), align 8
  %26 = and i32 %25, 31
  %27 = load i32, ptr getelementptr inbounds (i8, ptr @_ZN10VM_Version11_cpuid_infoE, i64 76), align 4
  %28 = and i32 %27, 65535
  %29 = or i32 %28, %26
  %.not.i = icmp eq i32 %29, 0
  br i1 %.not.i, label %.thread17.i, label %30

30:                                               ; preds = %_ZN10VM_Version27supports_processor_topologyEv.exit13.i
  %31 = load i32, ptr getelementptr inbounds (i8, ptr @_ZN10VM_Version11_cpuid_infoE, i64 92), align 4
  %.lhs.trunc20.i = trunc i32 %31 to i16
  %.rhs.trunc21.i = trunc i32 %27 to i16
  %32 = udiv i16 %.lhs.trunc20.i, %.rhs.trunc21.i
  %.zext22.i = zext i16 %32 to i32
  %.not23.i = icmp ugt i16 %.rhs.trunc21.i, %.lhs.trunc20.i
  br i1 %.not23.i, label %.thread17.i, label %_ZN10VM_Version13cores_per_cpuEv.exit

.thread17.i:                                      ; preds = %30, %_ZN10VM_Version27supports_processor_topologyEv.exit13.i, %22
  %33 = load i32, ptr getelementptr inbounds (i8, ptr @_ZN10VM_Version11_cpuid_infoE, i64 32), align 8
  %34 = lshr i32 %33, 26
  %35 = add nuw nsw i32 %34, 1
  br label %_ZN10VM_Version13cores_per_cpuEv.exit

_ZN10VM_Version13cores_per_cpuEv.exit.thread:     ; preds = %12, %.thread.i
  %.2.i.ph = phi i32 [ %.zext.i, %12 ], [ %17, %.thread.i ]
  %36 = mul nuw i32 %.2.i.ph, %2
  %37 = sdiv i32 %1, %36
  %spec.store.select18 = tail call i32 @llvm.umax.i32(i32 %37, i32 1)
  store i32 %spec.store.select18, ptr @_ZN19Abstract_VM_Version14_no_of_socketsE, align 4
  br label %40

_ZN10VM_Version13cores_per_cpuEv.exit:            ; preds = %0, %18, %30, %.thread17.i
  %.2.i = phi i32 [ %21, %18 ], [ %35, %.thread17.i ], [ %.zext22.i, %30 ], [ 1, %0 ]
  %38 = mul nuw i32 %.2.i, %2
  %39 = sdiv i32 %1, %38
  %spec.store.select = tail call i32 @llvm.umax.i32(i32 %39, i32 1)
  store i32 %spec.store.select, ptr @_ZN19Abstract_VM_Version14_no_of_socketsE, align 4
  switch i32 %3, label %_ZN10VM_Version13cores_per_cpuEv.exit16 [
    i32 1970169159, label %_ZN10VM_Version13cores_per_cpuEv.exit._crit_edge
    i32 1869052232, label %54
    i32 1752462657, label %54
    i32 1953391939, label %58
    i32 1750278176, label %58
  ]

_ZN10VM_Version13cores_per_cpuEv.exit._crit_edge: ; preds = %_ZN10VM_Version13cores_per_cpuEv.exit
  %.pre = load i32, ptr @_ZN10VM_Version11_cpuid_infoE, align 8
  br label %40

40:                                               ; preds = %_ZN10VM_Version13cores_per_cpuEv.exit._crit_edge, %_ZN10VM_Version13cores_per_cpuEv.exit.thread
  %41 = phi i32 [ %5, %_ZN10VM_Version13cores_per_cpuEv.exit.thread ], [ %.pre, %_ZN10VM_Version13cores_per_cpuEv.exit._crit_edge ]
  %spec.store.select19 = phi i32 [ %spec.store.select18, %_ZN10VM_Version13cores_per_cpuEv.exit.thread ], [ %spec.store.select, %_ZN10VM_Version13cores_per_cpuEv.exit._crit_edge ]
  %42 = icmp ugt i32 %41, 10
  br i1 %42, label %_ZN10VM_Version27supports_processor_topologyEv.exit.i10, label %.thread.i9

_ZN10VM_Version27supports_processor_topologyEv.exit.i10: ; preds = %40
  %43 = load i32, ptr getelementptr inbounds (i8, ptr @_ZN10VM_Version11_cpuid_infoE, i64 72), align 8
  %44 = and i32 %43, 31
  %45 = load i32, ptr getelementptr inbounds (i8, ptr @_ZN10VM_Version11_cpuid_infoE, i64 76), align 4
  %46 = and i32 %45, 65535
  %47 = or i32 %46, %44
  %.not24.i11 = icmp eq i32 %47, 0
  br i1 %.not24.i11, label %.thread.i9, label %48

48:                                               ; preds = %_ZN10VM_Version27supports_processor_topologyEv.exit.i10
  %49 = load i32, ptr getelementptr inbounds (i8, ptr @_ZN10VM_Version11_cpuid_infoE, i64 92), align 4
  %.lhs.trunc.i12 = trunc i32 %49 to i16
  %.rhs.trunc.i13 = trunc i32 %45 to i16
  %50 = udiv i16 %.lhs.trunc.i12, %.rhs.trunc.i13
  %.zext.i14 = zext i16 %50 to i32
  %.not25.i15 = icmp ugt i16 %.rhs.trunc.i13, %.lhs.trunc.i12
  br i1 %.not25.i15, label %.thread.i9, label %_ZN10VM_Version13cores_per_cpuEv.exit16

.thread.i9:                                       ; preds = %48, %_ZN10VM_Version27supports_processor_topologyEv.exit.i10, %40
  %51 = load i32, ptr getelementptr inbounds (i8, ptr @_ZN10VM_Version11_cpuid_infoE, i64 32), align 8
  %52 = lshr i32 %51, 26
  %53 = add nuw nsw i32 %52, 1
  br label %_ZN10VM_Version13cores_per_cpuEv.exit16

54:                                               ; preds = %_ZN10VM_Version13cores_per_cpuEv.exit, %_ZN10VM_Version13cores_per_cpuEv.exit
  %55 = load i32, ptr getelementptr inbounds (i8, ptr @_ZN10VM_Version11_cpuid_infoE, i64 240), align 8
  %56 = and i32 %55, 255
  %57 = add nuw nsw i32 %56, 1
  br label %_ZN10VM_Version13cores_per_cpuEv.exit16

58:                                               ; preds = %_ZN10VM_Version13cores_per_cpuEv.exit, %_ZN10VM_Version13cores_per_cpuEv.exit
  %59 = load i32, ptr @_ZN10VM_Version11_cpuid_infoE, align 8
  %60 = icmp ugt i32 %59, 10
  br i1 %60, label %_ZN10VM_Version27supports_processor_topologyEv.exit13.i3, label %.thread17.i1

_ZN10VM_Version27supports_processor_topologyEv.exit13.i3: ; preds = %58
  %61 = load i32, ptr getelementptr inbounds (i8, ptr @_ZN10VM_Version11_cpuid_infoE, i64 72), align 8
  %62 = and i32 %61, 31
  %63 = load i32, ptr getelementptr inbounds (i8, ptr @_ZN10VM_Version11_cpuid_infoE, i64 76), align 4
  %64 = and i32 %63, 65535
  %65 = or i32 %64, %62
  %.not.i4 = icmp eq i32 %65, 0
  br i1 %.not.i4, label %.thread17.i1, label %66

66:                                               ; preds = %_ZN10VM_Version27supports_processor_topologyEv.exit13.i3
  %67 = load i32, ptr getelementptr inbounds (i8, ptr @_ZN10VM_Version11_cpuid_infoE, i64 92), align 4
  %.lhs.trunc20.i5 = trunc i32 %67 to i16
  %.rhs.trunc21.i6 = trunc i32 %63 to i16
  %68 = udiv i16 %.lhs.trunc20.i5, %.rhs.trunc21.i6
  %.zext22.i7 = zext i16 %68 to i32
  %.not23.i8 = icmp ugt i16 %.rhs.trunc21.i6, %.lhs.trunc20.i5
  br i1 %.not23.i8, label %.thread17.i1, label %_ZN10VM_Version13cores_per_cpuEv.exit16

.thread17.i1:                                     ; preds = %66, %_ZN10VM_Version27supports_processor_topologyEv.exit13.i3, %58
  %69 = load i32, ptr getelementptr inbounds (i8, ptr @_ZN10VM_Version11_cpuid_infoE, i64 32), align 8
  %70 = lshr i32 %69, 26
  %71 = add nuw nsw i32 %70, 1
  br label %_ZN10VM_Version13cores_per_cpuEv.exit16

_ZN10VM_Version13cores_per_cpuEv.exit16:          ; preds = %_ZN10VM_Version13cores_per_cpuEv.exit, %48, %.thread.i9, %54, %66, %.thread17.i1
  %spec.store.select20 = phi i32 [ %spec.store.select19, %.thread.i9 ], [ %spec.store.select19, %48 ], [ %spec.store.select, %54 ], [ %spec.store.select, %.thread17.i1 ], [ %spec.store.select, %66 ], [ %spec.store.select, %_ZN10VM_Version13cores_per_cpuEv.exit ]
  %.2.i2 = phi i32 [ %53, %.thread.i9 ], [ %.zext.i14, %48 ], [ %57, %54 ], [ %71, %.thread17.i1 ], [ %.zext22.i7, %66 ], [ 1, %_ZN10VM_Version13cores_per_cpuEv.exit ]
  %72 = mul i32 %.2.i2, %spec.store.select20
  store i32 %72, ptr @_ZN19Abstract_VM_Version12_no_of_coresE, align 4
  ret void
}